target datalayout = "e-m:e-p270:32:32-p271:32:32-p272:64:64-i64:64-i128:128-f80:128-n8:16:32:64-S128"
target triple = "x86_64-pc-linux-gnu"

; Function Attrs: mustprogress nounwind uwtable
define hidden noundef zeroext i1 @_ZN2os5Posix7is_rootEj(i32 noundef %0) #1 align 2 {
  %2 = alloca i32, align 4
  store i32 %0, ptr %2, align 4
  %3 = load i32, ptr %2, align 4
  %4 = icmp eq i32 0, %3
  ret i1 %4
}

; Function Attrs: mustprogress nounwind uwtable
define hidden noundef zeroext i1 @_ZN2os5Posix37matches_effective_uid_and_gid_or_rootEjj(i32 noundef %0, i32 noundef %1) #1 align 2 {
  %3 = alloca i32, align 4
  %4 = alloca i32, align 4
  store i32 %0, ptr %3, align 4
  store i32 %1, ptr %4, align 4
  %5 = load i32, ptr %3, align 4
  %6 = call noundef zeroext i1 @_ZN2os5Posix7is_rootEj(i32 noundef %5)
  br i1 %6, label %17, label %7

7:                                                ; preds = %2
  %8 = call i32 @geteuid() #7
  %9 = load i32, ptr %3, align 4
  %10 = icmp eq i32 %8, %9
  br i1 %10, label %11, label %15

11:                                               ; preds = %7
  %12 = call i32 @getegid() #7
  %13 = load i32, ptr %4, align 4
  %14 = icmp eq i32 %12, %13
  br label %15

15:                                               ; preds = %11, %7
  %16 = phi i1 [ false, %7 ], [ %14, %11 ]
  br label %17

17:                                               ; preds = %15, %2
  %18 = phi i1 [ true, %2 ], [ %16, %15 ]
  ret i1 %18
}