; Function Attrs: mustprogress nounwind uwtable
define hidden noundef zeroext i1 @_ZN2os5Posix37matches_effective_uid_and_gid_or_rootEjj(i32 noundef %0, i32 noundef %1) local_unnamed_addr #1 align 2 {
  %3 = icmp eq i32 %0, 0
  br i1 %3, label %10, label %4

4:                                                ; preds = %2
  %5 = tail call i32 @geteuid() #25
  %6 = icmp eq i32 %5, %0
  br i1 %6, label %7, label %10

7:                                                ; preds = %4
  %8 = tail call i32 @getegid() #25
  %9 = icmp eq i32 %8, %1
  br label %10

10:                                               ; preds = %4, %7, %2
  %11 = phi i1 [ true, %2 ], [ false, %4 ], [ %9, %7 ]
  ret i1 %11
}